
RC_1.elf:     file format elf32-avr

Sections:
Idx Name          Size      VMA       LMA       File off  Algn
  0 .text         00000e18  00000000  00000000  00000094  2**1
                  CONTENTS, ALLOC, LOAD, READONLY, CODE
  1 .data         00000004  00800060  00000e18  00000eac  2**0
                  CONTENTS, ALLOC, LOAD, DATA
  2 .bss          00000053  00800064  00800064  00000eb0  2**0
                  ALLOC
  3 .stab         000009fc  00000000  00000000  00000eb0  2**2
                  CONTENTS, READONLY, DEBUGGING
  4 .stabstr      000002e1  00000000  00000000  000018ac  2**0
                  CONTENTS, READONLY, DEBUGGING
  5 .comment      0000002f  00000000  00000000  00001b8d  2**0
                  CONTENTS, READONLY

Disassembly of section .text:

00000000 <__vectors>:
   0:	12 c0       	rjmp	.+36     	; 0x26 <__ctors_end>
   2:	2c c0       	rjmp	.+88     	; 0x5c <__bad_interrupt>
   4:	2b c0       	rjmp	.+86     	; 0x5c <__bad_interrupt>
   6:	2a c0       	rjmp	.+84     	; 0x5c <__bad_interrupt>
   8:	29 c0       	rjmp	.+82     	; 0x5c <__bad_interrupt>
   a:	28 c0       	rjmp	.+80     	; 0x5c <__bad_interrupt>
   c:	27 c0       	rjmp	.+78     	; 0x5c <__bad_interrupt>
   e:	26 c0       	rjmp	.+76     	; 0x5c <__bad_interrupt>
  10:	25 c0       	rjmp	.+74     	; 0x5c <__bad_interrupt>
  12:	66 c0       	rjmp	.+204    	; 0xe0 <__vector_9>
  14:	23 c0       	rjmp	.+70     	; 0x5c <__bad_interrupt>
  16:	71 c6       	rjmp	.+3298   	; 0xcfa <__vector_11>
  18:	21 c0       	rjmp	.+66     	; 0x5c <__bad_interrupt>
  1a:	20 c0       	rjmp	.+64     	; 0x5c <__bad_interrupt>
  1c:	1f c0       	rjmp	.+62     	; 0x5c <__bad_interrupt>
  1e:	1e c0       	rjmp	.+60     	; 0x5c <__bad_interrupt>
  20:	1d c0       	rjmp	.+58     	; 0x5c <__bad_interrupt>
  22:	1c c0       	rjmp	.+56     	; 0x5c <__bad_interrupt>
  24:	1b c0       	rjmp	.+54     	; 0x5c <__bad_interrupt>

00000026 <__ctors_end>:
  26:	11 24       	eor	r1, r1
  28:	1f be       	out	0x3f, r1	; 63
  2a:	cf e5       	ldi	r28, 0x5F	; 95
  2c:	d4 e0       	ldi	r29, 0x04	; 4
  2e:	de bf       	out	0x3e, r29	; 62
  30:	cd bf       	out	0x3d, r28	; 61

00000032 <__do_copy_data>:
  32:	10 e0       	ldi	r17, 0x00	; 0
  34:	a0 e6       	ldi	r26, 0x60	; 96
  36:	b0 e0       	ldi	r27, 0x00	; 0
  38:	e8 e1       	ldi	r30, 0x18	; 24
  3a:	fe e0       	ldi	r31, 0x0E	; 14
  3c:	02 c0       	rjmp	.+4      	; 0x42 <__SREG__+0x3>
  3e:	05 90       	lpm	r0, Z+
  40:	0d 92       	st	X+, r0
  42:	a4 36       	cpi	r26, 0x64	; 100
  44:	b1 07       	cpc	r27, r17
  46:	d9 f7       	brne	.-10     	; 0x3e <__SP_H__>

00000048 <__do_clear_bss>:
  48:	20 e0       	ldi	r18, 0x00	; 0
  4a:	a4 e6       	ldi	r26, 0x64	; 100
  4c:	b0 e0       	ldi	r27, 0x00	; 0
  4e:	01 c0       	rjmp	.+2      	; 0x52 <.do_clear_bss_start>

00000050 <.do_clear_bss_loop>:
  50:	1d 92       	st	X+, r1

00000052 <.do_clear_bss_start>:
  52:	a7 3b       	cpi	r26, 0xB7	; 183
  54:	b2 07       	cpc	r27, r18
  56:	e1 f7       	brne	.-8      	; 0x50 <.do_clear_bss_loop>
  58:	19 d6       	rcall	.+3122   	; 0xc8c <main>
  5a:	dc c6       	rjmp	.+3512   	; 0xe14 <_exit>

0000005c <__bad_interrupt>:
  5c:	d1 cf       	rjmp	.-94     	; 0x0 <__vectors>

0000005e <_Z9UART_Initm>:
  5e:	10 bc       	out	0x20, r1	; 32
  60:	80 e1       	ldi	r24, 0x10	; 16
  62:	89 b9       	out	0x09, r24	; 9
  64:	82 e0       	ldi	r24, 0x02	; 2
  66:	8b b9       	out	0x0b, r24	; 11
  68:	88 e1       	ldi	r24, 0x18	; 24
  6a:	8a b9       	out	0x0a, r24	; 10
  6c:	57 9a       	sbi	0x0a, 7	; 10
  6e:	08 95       	ret

00000070 <_Z13UART_SendByteh>:
  70:	5d 9b       	sbis	0x0b, 5	; 11
  72:	fe cf       	rjmp	.-4      	; 0x70 <_Z13UART_SendByteh>
  74:	8c b9       	out	0x0c, r24	; 12
  76:	08 95       	ret

00000078 <_Z13UART_ReadByteRh>:
  78:	5f 9b       	sbis	0x0b, 7	; 11
  7a:	05 c0       	rjmp	.+10     	; 0x86 <_Z13UART_ReadByteRh+0xe>
  7c:	2c b1       	in	r18, 0x0c	; 12
  7e:	fc 01       	movw	r30, r24
  80:	20 83       	st	Z, r18
  82:	81 e0       	ldi	r24, 0x01	; 1
  84:	08 95       	ret
  86:	80 e0       	ldi	r24, 0x00	; 0
  88:	08 95       	ret

0000008a <_Z14UART_SendArrayPhj>:
  8a:	0f 93       	push	r16
  8c:	1f 93       	push	r17
  8e:	cf 93       	push	r28
  90:	df 93       	push	r29
  92:	8b 01       	movw	r16, r22
  94:	ec 01       	movw	r28, r24
  96:	08 0f       	add	r16, r24
  98:	19 1f       	adc	r17, r25
  9a:	02 c0       	rjmp	.+4      	; 0xa0 <_Z14UART_SendArrayPhj+0x16>
  9c:	89 91       	ld	r24, Y+
  9e:	e8 df       	rcall	.-48     	; 0x70 <_Z13UART_SendByteh>
  a0:	c0 17       	cp	r28, r16
  a2:	d1 07       	cpc	r29, r17
  a4:	d9 f7       	brne	.-10     	; 0x9c <_Z14UART_SendArrayPhj+0x12>
  a6:	5d 9b       	sbis	0x0b, 5	; 11
  a8:	fe cf       	rjmp	.-4      	; 0xa6 <_Z14UART_SendArrayPhj+0x1c>
  aa:	df 91       	pop	r29
  ac:	cf 91       	pop	r28
  ae:	1f 91       	pop	r17
  b0:	0f 91       	pop	r16
  b2:	08 95       	ret

000000b4 <_Z6AnReadh>:
  b4:	87 b9       	out	0x07, r24	; 7
  b6:	45 e3       	ldi	r20, 0x35	; 53
  b8:	4a 95       	dec	r20
  ba:	f1 f7       	brne	.-4      	; 0xb8 <_Z6AnReadh+0x4>
  bc:	00 00       	nop
  be:	86 ec       	ldi	r24, 0xC6	; 198
  c0:	86 b9       	out	0x06, r24	; 6
  c2:	36 99       	sbic	0x06, 6	; 6
  c4:	fe cf       	rjmp	.-4      	; 0xc2 <_Z6AnReadh+0xe>
  c6:	24 b1       	in	r18, 0x04	; 4
  c8:	35 b1       	in	r19, 0x05	; 5
  ca:	93 2f       	mov	r25, r19
  cc:	80 e0       	ldi	r24, 0x00	; 0
  ce:	ac 01       	movw	r20, r24
  d0:	42 0f       	add	r20, r18
  d2:	51 1d       	adc	r21, r1
  d4:	ca 01       	movw	r24, r20
  d6:	08 95       	ret

000000d8 <_Z16WriteEEPROM_Bytehh>:
  d8:	90 e0       	ldi	r25, 0x00	; 0
  da:	8f c6       	rjmp	.+3358   	; 0xdfa <__eewr_byte_m8>

000000dc <_Z15ReadEEPROM_Byteh>:
  dc:	90 e0       	ldi	r25, 0x00	; 0
  de:	85 c6       	rjmp	.+3338   	; 0xdea <__eerd_byte_m8>

000000e0 <__vector_9>:
  e0:	1f 92       	push	r1
  e2:	0f 92       	push	r0
  e4:	0f b6       	in	r0, 0x3f	; 63
  e6:	0f 92       	push	r0
  e8:	11 24       	eor	r1, r1
  ea:	2f 93       	push	r18
  ec:	3f 93       	push	r19
  ee:	8f 93       	push	r24
  f0:	9f 93       	push	r25
  f2:	af 93       	push	r26
  f4:	bf 93       	push	r27
  f6:	80 91 ae 00 	lds	r24, 0x00AE
  fa:	90 91 af 00 	lds	r25, 0x00AF
  fe:	a0 91 b0 00 	lds	r26, 0x00B0
 102:	b0 91 b1 00 	lds	r27, 0x00B1
 106:	30 91 b6 00 	lds	r19, 0x00B6
 10a:	23 2f       	mov	r18, r19
 10c:	2d 5f       	subi	r18, 0xFD	; 253
 10e:	2d 37       	cpi	r18, 0x7D	; 125
 110:	20 f4       	brcc	.+8      	; 0x11a <__vector_9+0x3a>
 112:	01 96       	adiw	r24, 0x01	; 1
 114:	a1 1d       	adc	r26, r1
 116:	b1 1d       	adc	r27, r1
 118:	05 c0       	rjmp	.+10     	; 0x124 <__vector_9+0x44>
 11a:	23 2f       	mov	r18, r19
 11c:	2a 57       	subi	r18, 0x7A	; 122
 11e:	02 96       	adiw	r24, 0x02	; 2
 120:	a1 1d       	adc	r26, r1
 122:	b1 1d       	adc	r27, r1
 124:	20 93 b6 00 	sts	0x00B6, r18
 128:	80 93 ae 00 	sts	0x00AE, r24
 12c:	90 93 af 00 	sts	0x00AF, r25
 130:	a0 93 b0 00 	sts	0x00B0, r26
 134:	b0 93 b1 00 	sts	0x00B1, r27
 138:	80 91 b2 00 	lds	r24, 0x00B2
 13c:	90 91 b3 00 	lds	r25, 0x00B3
 140:	a0 91 b4 00 	lds	r26, 0x00B4
 144:	b0 91 b5 00 	lds	r27, 0x00B5
 148:	01 96       	adiw	r24, 0x01	; 1
 14a:	a1 1d       	adc	r26, r1
 14c:	b1 1d       	adc	r27, r1
 14e:	80 93 b2 00 	sts	0x00B2, r24
 152:	90 93 b3 00 	sts	0x00B3, r25
 156:	a0 93 b4 00 	sts	0x00B4, r26
 15a:	b0 93 b5 00 	sts	0x00B5, r27
 15e:	bf 91       	pop	r27
 160:	af 91       	pop	r26
 162:	9f 91       	pop	r25
 164:	8f 91       	pop	r24
 166:	3f 91       	pop	r19
 168:	2f 91       	pop	r18
 16a:	0f 90       	pop	r0
 16c:	0f be       	out	0x3f, r0	; 63
 16e:	0f 90       	pop	r0
 170:	1f 90       	pop	r1
 172:	18 95       	reti

00000174 <_Z6millisv>:
 174:	0f 93       	push	r16
 176:	1f 93       	push	r17
 178:	8f b7       	in	r24, 0x3f	; 63
 17a:	f8 94       	cli
 17c:	00 91 ae 00 	lds	r16, 0x00AE
 180:	10 91 af 00 	lds	r17, 0x00AF
 184:	20 91 b0 00 	lds	r18, 0x00B0
 188:	30 91 b1 00 	lds	r19, 0x00B1
 18c:	8f bf       	out	0x3f, r24	; 63
 18e:	b8 01       	movw	r22, r16
 190:	c9 01       	movw	r24, r18
 192:	1f 91       	pop	r17
 194:	0f 91       	pop	r16
 196:	08 95       	ret

00000198 <_Z6microsv>:
 198:	0f 93       	push	r16
 19a:	1f 93       	push	r17
 19c:	9f b7       	in	r25, 0x3f	; 63
 19e:	f8 94       	cli
 1a0:	00 91 b2 00 	lds	r16, 0x00B2
 1a4:	10 91 b3 00 	lds	r17, 0x00B3
 1a8:	20 91 b4 00 	lds	r18, 0x00B4
 1ac:	30 91 b5 00 	lds	r19, 0x00B5
 1b0:	82 b7       	in	r24, 0x32	; 50
 1b2:	08 b6       	in	r0, 0x38	; 56
 1b4:	00 fe       	sbrs	r0, 0
 1b6:	06 c0       	rjmp	.+12     	; 0x1c4 <_Z6microsv+0x2c>
 1b8:	8f 3f       	cpi	r24, 0xFF	; 255
 1ba:	21 f0       	breq	.+8      	; 0x1c4 <_Z6microsv+0x2c>
 1bc:	0f 5f       	subi	r16, 0xFF	; 255
 1be:	1f 4f       	sbci	r17, 0xFF	; 255
 1c0:	2f 4f       	sbci	r18, 0xFF	; 255
 1c2:	3f 4f       	sbci	r19, 0xFF	; 255
 1c4:	9f bf       	out	0x3f, r25	; 63
 1c6:	32 2f       	mov	r19, r18
 1c8:	21 2f       	mov	r18, r17
 1ca:	10 2f       	mov	r17, r16
 1cc:	00 27       	eor	r16, r16
 1ce:	08 0f       	add	r16, r24
 1d0:	11 1d       	adc	r17, r1
 1d2:	21 1d       	adc	r18, r1
 1d4:	31 1d       	adc	r19, r1
 1d6:	42 e0       	ldi	r20, 0x02	; 2
 1d8:	00 0f       	add	r16, r16
 1da:	11 1f       	adc	r17, r17
 1dc:	22 1f       	adc	r18, r18
 1de:	33 1f       	adc	r19, r19
 1e0:	4a 95       	dec	r20
 1e2:	d1 f7       	brne	.-12     	; 0x1d8 <_Z6microsv+0x40>
 1e4:	b8 01       	movw	r22, r16
 1e6:	c9 01       	movw	r24, r18
 1e8:	1f 91       	pop	r17
 1ea:	0f 91       	pop	r16
 1ec:	08 95       	ret

000001ee <_Z5delaym>:
 1ee:	cf 92       	push	r12
 1f0:	df 92       	push	r13
 1f2:	ef 92       	push	r14
 1f4:	ff 92       	push	r15
 1f6:	cf 93       	push	r28
 1f8:	df 93       	push	r29
 1fa:	6b 01       	movw	r12, r22
 1fc:	7c 01       	movw	r14, r24
 1fe:	cc df       	rcall	.-104    	; 0x198 <_Z6microsv>
 200:	eb 01       	movw	r28, r22
 202:	0d c0       	rjmp	.+26     	; 0x21e <_Z5delaym+0x30>
 204:	c9 df       	rcall	.-110    	; 0x198 <_Z6microsv>
 206:	6c 1b       	sub	r22, r28
 208:	7d 0b       	sbc	r23, r29
 20a:	68 3e       	cpi	r22, 0xE8	; 232
 20c:	73 40       	sbci	r23, 0x03	; 3
 20e:	38 f0       	brcs	.+14     	; 0x21e <_Z5delaym+0x30>
 210:	81 e0       	ldi	r24, 0x01	; 1
 212:	c8 1a       	sub	r12, r24
 214:	d1 08       	sbc	r13, r1
 216:	e1 08       	sbc	r14, r1
 218:	f1 08       	sbc	r15, r1
 21a:	c8 51       	subi	r28, 0x18	; 24
 21c:	dc 4f       	sbci	r29, 0xFC	; 252
 21e:	c1 14       	cp	r12, r1
 220:	d1 04       	cpc	r13, r1
 222:	e1 04       	cpc	r14, r1
 224:	f1 04       	cpc	r15, r1
 226:	71 f7       	brne	.-36     	; 0x204 <_Z5delaym+0x16>
 228:	df 91       	pop	r29
 22a:	cf 91       	pop	r28
 22c:	ff 90       	pop	r15
 22e:	ef 90       	pop	r14
 230:	df 90       	pop	r13
 232:	cf 90       	pop	r12
 234:	08 95       	ret

00000236 <_Z4initv>:
 236:	78 94       	sei
 238:	83 b7       	in	r24, 0x33	; 51
 23a:	82 60       	ori	r24, 0x02	; 2
 23c:	83 bf       	out	0x33, r24	; 51
 23e:	83 b7       	in	r24, 0x33	; 51
 240:	81 60       	ori	r24, 0x01	; 1
 242:	83 bf       	out	0x33, r24	; 51
 244:	89 b7       	in	r24, 0x39	; 57
 246:	81 60       	ori	r24, 0x01	; 1
 248:	89 bf       	out	0x39, r24	; 57
 24a:	1e bc       	out	0x2e, r1	; 46
 24c:	8e b5       	in	r24, 0x2e	; 46
 24e:	82 60       	ori	r24, 0x02	; 2
 250:	8e bd       	out	0x2e, r24	; 46
 252:	8e b5       	in	r24, 0x2e	; 46
 254:	81 60       	ori	r24, 0x01	; 1
 256:	8e bd       	out	0x2e, r24	; 46
 258:	8f b5       	in	r24, 0x2f	; 47
 25a:	81 60       	ori	r24, 0x01	; 1
 25c:	8f bd       	out	0x2f, r24	; 47
 25e:	85 b5       	in	r24, 0x25	; 37
 260:	84 60       	ori	r24, 0x04	; 4
 262:	85 bd       	out	0x25, r24	; 37
 264:	85 b5       	in	r24, 0x25	; 37
 266:	80 64       	ori	r24, 0x40	; 64
 268:	85 bd       	out	0x25, r24	; 37
 26a:	32 9a       	sbi	0x06, 2	; 6
 26c:	31 9a       	sbi	0x06, 1	; 6
 26e:	30 9a       	sbi	0x06, 0	; 6
 270:	37 9a       	sbi	0x06, 7	; 6
 272:	1a b8       	out	0x0a, r1	; 10
 274:	08 95       	ret

00000276 <_ZN5dht114readEv>:
 276:	6f 92       	push	r6
 278:	7f 92       	push	r7
 27a:	8f 92       	push	r8
 27c:	9f 92       	push	r9
 27e:	af 92       	push	r10
 280:	bf 92       	push	r11
 282:	cf 92       	push	r12
 284:	df 92       	push	r13
 286:	ef 92       	push	r14
 288:	ff 92       	push	r15
 28a:	0f 93       	push	r16
 28c:	1f 93       	push	r17
 28e:	cf 93       	push	r28
 290:	df 93       	push	r29
 292:	00 d0       	rcall	.+0      	; 0x294 <_ZN5dht114readEv+0x1e>
 294:	00 d0       	rcall	.+0      	; 0x296 <_ZN5dht114readEv+0x20>
 296:	1f 92       	push	r1
 298:	cd b7       	in	r28, 0x3d	; 61
 29a:	de b7       	in	r29, 0x3e	; 62
 29c:	8c 01       	movw	r16, r24
 29e:	19 82       	std	Y+1, r1	; 0x01
 2a0:	1a 82       	std	Y+2, r1	; 0x02
 2a2:	1b 82       	std	Y+3, r1	; 0x03
 2a4:	1c 82       	std	Y+4, r1	; 0x04
 2a6:	1d 82       	std	Y+5, r1	; 0x05
 2a8:	a0 9a       	sbi	0x14, 0	; 20
 2aa:	a8 98       	cbi	0x15, 0	; 21
 2ac:	62 e1       	ldi	r22, 0x12	; 18
 2ae:	70 e0       	ldi	r23, 0x00	; 0
 2b0:	80 e0       	ldi	r24, 0x00	; 0
 2b2:	90 e0       	ldi	r25, 0x00	; 0
 2b4:	9c df       	rcall	.-200    	; 0x1ee <_Z5delaym>
 2b6:	a8 9a       	sbi	0x15, 0	; 21
 2b8:	82 ec       	ldi	r24, 0xC2	; 194
 2ba:	90 e0       	ldi	r25, 0x00	; 0
 2bc:	01 97       	sbiw	r24, 0x01	; 1
 2be:	f1 f7       	brne	.-4      	; 0x2bc <_ZN5dht114readEv+0x46>
 2c0:	a0 98       	cbi	0x14, 0	; 20
 2c2:	84 ed       	ldi	r24, 0xD4	; 212
 2c4:	9e ef       	ldi	r25, 0xFE	; 254
 2c6:	f8 01       	movw	r30, r16
 2c8:	91 83       	std	Z+1, r25	; 0x01
 2ca:	80 83       	st	Z, r24
 2cc:	93 83       	std	Z+3, r25	; 0x03
 2ce:	82 83       	std	Z+2, r24	; 0x02
 2d0:	81 ee       	ldi	r24, 0xE1	; 225
 2d2:	9e e2       	ldi	r25, 0x2E	; 46
 2d4:	05 c0       	rjmp	.+10     	; 0x2e0 <_ZN5dht114readEv+0x6a>
 2d6:	01 97       	sbiw	r24, 0x01	; 1
 2d8:	19 f4       	brne	.+6      	; 0x2e0 <_ZN5dht114readEv+0x6a>
 2da:	2e ef       	ldi	r18, 0xFE	; 254
 2dc:	3f ef       	ldi	r19, 0xFF	; 255
 2de:	58 c0       	rjmp	.+176    	; 0x390 <_ZN5dht114readEv+0x11a>
 2e0:	98 9b       	sbis	0x13, 0	; 19
 2e2:	f9 cf       	rjmp	.-14     	; 0x2d6 <_ZN5dht114readEv+0x60>
 2e4:	81 ee       	ldi	r24, 0xE1	; 225
 2e6:	9e e2       	ldi	r25, 0x2E	; 46
 2e8:	02 c0       	rjmp	.+4      	; 0x2ee <_ZN5dht114readEv+0x78>
 2ea:	01 97       	sbiw	r24, 0x01	; 1
 2ec:	b1 f3       	breq	.-20     	; 0x2da <_ZN5dht114readEv+0x64>
 2ee:	98 99       	sbic	0x13, 0	; 19
 2f0:	fc cf       	rjmp	.-8      	; 0x2ea <_ZN5dht114readEv+0x74>
 2f2:	78 e2       	ldi	r23, 0x28	; 40
 2f4:	e7 2e       	mov	r14, r23
 2f6:	f1 2c       	mov	r15, r1
 2f8:	61 2c       	mov	r6, r1
 2fa:	e7 e0       	ldi	r30, 0x07	; 7
 2fc:	7e 2e       	mov	r7, r30
 2fe:	cc 24       	eor	r12, r12
 300:	c3 94       	inc	r12
 302:	d1 2c       	mov	r13, r1
 304:	03 c0       	rjmp	.+6      	; 0x30c <_ZN5dht114readEv+0x96>
 306:	01 97       	sbiw	r24, 0x01	; 1
 308:	19 f4       	brne	.+6      	; 0x310 <_ZN5dht114readEv+0x9a>
 30a:	e7 cf       	rjmp	.-50     	; 0x2da <_ZN5dht114readEv+0x64>
 30c:	81 ee       	ldi	r24, 0xE1	; 225
 30e:	9e e2       	ldi	r25, 0x2E	; 46
 310:	98 9b       	sbis	0x13, 0	; 19
 312:	f9 cf       	rjmp	.-14     	; 0x306 <_ZN5dht114readEv+0x90>
 314:	41 df       	rcall	.-382    	; 0x198 <_Z6microsv>
 316:	4b 01       	movw	r8, r22
 318:	5c 01       	movw	r10, r24
 31a:	81 ee       	ldi	r24, 0xE1	; 225
 31c:	9e e2       	ldi	r25, 0x2E	; 46
 31e:	02 c0       	rjmp	.+4      	; 0x324 <_ZN5dht114readEv+0xae>
 320:	01 97       	sbiw	r24, 0x01	; 1
 322:	d9 f2       	breq	.-74     	; 0x2da <_ZN5dht114readEv+0x64>
 324:	98 99       	sbic	0x13, 0	; 19
 326:	fc cf       	rjmp	.-8      	; 0x320 <_ZN5dht114readEv+0xaa>
 328:	37 df       	rcall	.-402    	; 0x198 <_Z6microsv>
 32a:	68 19       	sub	r22, r8
 32c:	79 09       	sbc	r23, r9
 32e:	8a 09       	sbc	r24, r10
 330:	9b 09       	sbc	r25, r11
 332:	69 32       	cpi	r22, 0x29	; 41
 334:	71 05       	cpc	r23, r1
 336:	81 05       	cpc	r24, r1
 338:	91 05       	cpc	r25, r1
 33a:	78 f0       	brcs	.+30     	; 0x35a <_ZN5dht114readEv+0xe4>
 33c:	e1 e0       	ldi	r30, 0x01	; 1
 33e:	f0 e0       	ldi	r31, 0x00	; 0
 340:	ec 0f       	add	r30, r28
 342:	fd 1f       	adc	r31, r29
 344:	e6 0d       	add	r30, r6
 346:	f1 1d       	adc	r31, r1
 348:	c6 01       	movw	r24, r12
 34a:	07 2c       	mov	r0, r7
 34c:	01 c0       	rjmp	.+2      	; 0x350 <_ZN5dht114readEv+0xda>
 34e:	88 0f       	add	r24, r24
 350:	0a 94       	dec	r0
 352:	ea f7       	brpl	.-6      	; 0x34e <_ZN5dht114readEv+0xd8>
 354:	90 81       	ld	r25, Z
 356:	98 2b       	or	r25, r24
 358:	90 83       	st	Z, r25
 35a:	71 10       	cpse	r7, r1
 35c:	04 c0       	rjmp	.+8      	; 0x366 <_ZN5dht114readEv+0xf0>
 35e:	63 94       	inc	r6
 360:	67 e0       	ldi	r22, 0x07	; 7
 362:	76 2e       	mov	r7, r22
 364:	01 c0       	rjmp	.+2      	; 0x368 <_ZN5dht114readEv+0xf2>
 366:	7a 94       	dec	r7
 368:	f1 e0       	ldi	r31, 0x01	; 1
 36a:	ef 1a       	sub	r14, r31
 36c:	f1 08       	sbc	r15, r1
 36e:	71 f6       	brne	.-100    	; 0x30c <_ZN5dht114readEv+0x96>
 370:	89 81       	ldd	r24, Y+1	; 0x01
 372:	f8 01       	movw	r30, r16
 374:	80 83       	st	Z, r24
 376:	11 82       	std	Z+1, r1	; 0x01
 378:	9b 81       	ldd	r25, Y+3	; 0x03
 37a:	92 83       	std	Z+2, r25	; 0x02
 37c:	13 82       	std	Z+3, r1	; 0x03
 37e:	89 0f       	add	r24, r25
 380:	9d 81       	ldd	r25, Y+5	; 0x05
 382:	98 17       	cp	r25, r24
 384:	19 f0       	breq	.+6      	; 0x38c <_ZN5dht114readEv+0x116>
 386:	2f ef       	ldi	r18, 0xFF	; 255
 388:	3f ef       	ldi	r19, 0xFF	; 255
 38a:	02 c0       	rjmp	.+4      	; 0x390 <_ZN5dht114readEv+0x11a>
 38c:	20 e0       	ldi	r18, 0x00	; 0
 38e:	30 e0       	ldi	r19, 0x00	; 0
 390:	c9 01       	movw	r24, r18
 392:	0f 90       	pop	r0
 394:	0f 90       	pop	r0
 396:	0f 90       	pop	r0
 398:	0f 90       	pop	r0
 39a:	0f 90       	pop	r0
 39c:	df 91       	pop	r29
 39e:	cf 91       	pop	r28
 3a0:	1f 91       	pop	r17
 3a2:	0f 91       	pop	r16
 3a4:	ff 90       	pop	r15
 3a6:	ef 90       	pop	r14
 3a8:	df 90       	pop	r13
 3aa:	cf 90       	pop	r12
 3ac:	bf 90       	pop	r11
 3ae:	af 90       	pop	r10
 3b0:	9f 90       	pop	r9
 3b2:	8f 90       	pop	r8
 3b4:	7f 90       	pop	r7
 3b6:	6f 90       	pop	r6
 3b8:	08 95       	ret

000003ba <_Z11changeValuePb>:
 3ba:	fc 01       	movw	r30, r24
 3bc:	80 81       	ld	r24, Z
 3be:	81 11       	cpse	r24, r1
 3c0:	03 c0       	rjmp	.+6      	; 0x3c8 <_Z11changeValuePb+0xe>
 3c2:	81 e0       	ldi	r24, 0x01	; 1
 3c4:	80 83       	st	Z, r24
 3c6:	08 95       	ret
 3c8:	10 82       	st	Z, r1
 3ca:	08 95       	ret

000003cc <_Z8saveSetsv>:
 3cc:	60 91 79 00 	lds	r22, 0x0079
 3d0:	80 e0       	ldi	r24, 0x00	; 0
 3d2:	82 de       	rcall	.-764    	; 0xd8 <_Z16WriteEEPROM_Bytehh>
 3d4:	60 91 7a 00 	lds	r22, 0x007A
 3d8:	81 e0       	ldi	r24, 0x01	; 1
 3da:	7e de       	rcall	.-772    	; 0xd8 <_Z16WriteEEPROM_Bytehh>
 3dc:	60 91 7b 00 	lds	r22, 0x007B
 3e0:	82 e0       	ldi	r24, 0x02	; 2
 3e2:	7a de       	rcall	.-780    	; 0xd8 <_Z16WriteEEPROM_Bytehh>
 3e4:	60 91 7c 00 	lds	r22, 0x007C
 3e8:	83 e0       	ldi	r24, 0x03	; 3
 3ea:	76 de       	rcall	.-788    	; 0xd8 <_Z16WriteEEPROM_Bytehh>
 3ec:	60 91 7d 00 	lds	r22, 0x007D
 3f0:	84 e0       	ldi	r24, 0x04	; 4
 3f2:	72 de       	rcall	.-796    	; 0xd8 <_Z16WriteEEPROM_Bytehh>
 3f4:	60 91 7e 00 	lds	r22, 0x007E
 3f8:	85 e0       	ldi	r24, 0x05	; 5
 3fa:	6e ce       	rjmp	.-804    	; 0xd8 <_Z16WriteEEPROM_Bytehh>

000003fc <_Z8loadSetsv>:
 3fc:	80 e0       	ldi	r24, 0x00	; 0
 3fe:	6e de       	rcall	.-804    	; 0xdc <_Z15ReadEEPROM_Byteh>
 400:	91 e0       	ldi	r25, 0x01	; 1
 402:	81 11       	cpse	r24, r1
 404:	01 c0       	rjmp	.+2      	; 0x408 <_Z8loadSetsv+0xc>
 406:	90 e0       	ldi	r25, 0x00	; 0
 408:	90 93 79 00 	sts	0x0079, r25
 40c:	81 e0       	ldi	r24, 0x01	; 1
 40e:	66 de       	rcall	.-820    	; 0xdc <_Z15ReadEEPROM_Byteh>
 410:	91 e0       	ldi	r25, 0x01	; 1
 412:	81 11       	cpse	r24, r1
 414:	01 c0       	rjmp	.+2      	; 0x418 <_Z8loadSetsv+0x1c>
 416:	90 e0       	ldi	r25, 0x00	; 0
 418:	90 93 7a 00 	sts	0x007A, r25
 41c:	82 e0       	ldi	r24, 0x02	; 2
 41e:	5e de       	rcall	.-836    	; 0xdc <_Z15ReadEEPROM_Byteh>
 420:	91 e0       	ldi	r25, 0x01	; 1
 422:	81 11       	cpse	r24, r1
 424:	01 c0       	rjmp	.+2      	; 0x428 <_Z8loadSetsv+0x2c>
 426:	90 e0       	ldi	r25, 0x00	; 0
 428:	90 93 7b 00 	sts	0x007B, r25
 42c:	83 e0       	ldi	r24, 0x03	; 3
 42e:	56 de       	rcall	.-852    	; 0xdc <_Z15ReadEEPROM_Byteh>
 430:	91 e0       	ldi	r25, 0x01	; 1
 432:	81 11       	cpse	r24, r1
 434:	01 c0       	rjmp	.+2      	; 0x438 <_Z8loadSetsv+0x3c>
 436:	90 e0       	ldi	r25, 0x00	; 0
 438:	90 93 7c 00 	sts	0x007C, r25
 43c:	84 e0       	ldi	r24, 0x04	; 4
 43e:	4e de       	rcall	.-868    	; 0xdc <_Z15ReadEEPROM_Byteh>
 440:	91 e0       	ldi	r25, 0x01	; 1
 442:	81 11       	cpse	r24, r1
 444:	01 c0       	rjmp	.+2      	; 0x448 <_Z8loadSetsv+0x4c>
 446:	90 e0       	ldi	r25, 0x00	; 0
 448:	90 93 7d 00 	sts	0x007D, r25
 44c:	85 e0       	ldi	r24, 0x05	; 5
 44e:	46 de       	rcall	.-884    	; 0xdc <_Z15ReadEEPROM_Byteh>
 450:	91 e0       	ldi	r25, 0x01	; 1
 452:	81 11       	cpse	r24, r1
 454:	01 c0       	rjmp	.+2      	; 0x458 <_Z8loadSetsv+0x5c>
 456:	90 e0       	ldi	r25, 0x00	; 0
 458:	90 93 7e 00 	sts	0x007E, r25
 45c:	08 95       	ret

0000045e <_Z8initFuncv>:
 45e:	2d e0       	ldi	r18, 0x0D	; 13
 460:	88 e1       	ldi	r24, 0x18	; 24
 462:	90 e0       	ldi	r25, 0x00	; 0
 464:	0f b6       	in	r0, 0x3f	; 63
 466:	f8 94       	cli
 468:	a8 95       	wdr
 46a:	81 bd       	out	0x21, r24	; 33
 46c:	0f be       	out	0x3f, r0	; 63
 46e:	21 bd       	out	0x21, r18	; 33
 470:	8a 9a       	sbi	0x11, 2	; 17
 472:	92 98       	cbi	0x12, 2	; 18
 474:	78 94       	sei
 476:	df de       	rcall	.-578    	; 0x236 <_Z4initv>
 478:	60 e0       	ldi	r22, 0x00	; 0
 47a:	72 ec       	ldi	r23, 0xC2	; 194
 47c:	81 e0       	ldi	r24, 0x01	; 1
 47e:	90 e0       	ldi	r25, 0x00	; 0
 480:	ee dd       	rcall	.-1060   	; 0x5e <_Z9UART_Initm>
 482:	bd 9a       	sbi	0x17, 5	; 23
 484:	c5 9a       	sbi	0x18, 5	; 24
 486:	87 b3       	in	r24, 0x17	; 23
 488:	88 68       	ori	r24, 0x88	; 136
 48a:	87 bb       	out	0x17, r24	; 23
 48c:	ba 9a       	sbi	0x17, 2	; 23
 48e:	b9 9a       	sbi	0x17, 1	; 23
 490:	b8 9a       	sbi	0x17, 0	; 23
 492:	8f 98       	cbi	0x11, 7	; 17
 494:	8e 98       	cbi	0x11, 6	; 17
 496:	8d 98       	cbi	0x11, 5	; 17
 498:	8c 98       	cbi	0x11, 4	; 17
 49a:	97 9a       	sbi	0x12, 7	; 18
 49c:	96 9a       	sbi	0x12, 6	; 18
 49e:	95 9a       	sbi	0x12, 5	; 18
 4a0:	94 9a       	sbi	0x12, 4	; 18
 4a2:	bc 98       	cbi	0x17, 4	; 23
 4a4:	8b 98       	cbi	0x11, 3	; 17
 4a6:	c4 9a       	sbi	0x18, 4	; 24
 4a8:	93 9a       	sbi	0x12, 3	; 18
 4aa:	a2 9a       	sbi	0x14, 2	; 20
 4ac:	a3 9a       	sbi	0x14, 3	; 20
 4ae:	a4 98       	cbi	0x14, 4	; 20
 4b0:	a5 98       	cbi	0x14, 5	; 20
 4b2:	ac 9a       	sbi	0x15, 4	; 21
 4b4:	ad 9a       	sbi	0x15, 5	; 21
 4b6:	10 92 75 00 	sts	0x0075, r1
 4ba:	10 92 76 00 	sts	0x0076, r1
 4be:	10 92 77 00 	sts	0x0077, r1
 4c2:	10 92 78 00 	sts	0x0078, r1
 4c6:	10 92 7f 00 	sts	0x007F, r1
 4ca:	10 92 80 00 	sts	0x0080, r1
 4ce:	10 92 81 00 	sts	0x0081, r1
 4d2:	10 92 82 00 	sts	0x0082, r1
 4d6:	10 92 83 00 	sts	0x0083, r1
 4da:	8f ef       	ldi	r24, 0xFF	; 255
 4dc:	9f ef       	ldi	r25, 0xFF	; 255
 4de:	dc 01       	movw	r26, r24
 4e0:	80 93 84 00 	sts	0x0084, r24
 4e4:	90 93 85 00 	sts	0x0085, r25
 4e8:	a0 93 86 00 	sts	0x0086, r26
 4ec:	b0 93 87 00 	sts	0x0087, r27
 4f0:	80 93 88 00 	sts	0x0088, r24
 4f4:	90 93 89 00 	sts	0x0089, r25
 4f8:	a0 93 8a 00 	sts	0x008A, r26
 4fc:	b0 93 8b 00 	sts	0x008B, r27
 500:	80 93 8c 00 	sts	0x008C, r24
 504:	90 93 8d 00 	sts	0x008D, r25
 508:	a0 93 8e 00 	sts	0x008E, r26
 50c:	b0 93 8f 00 	sts	0x008F, r27
 510:	80 93 90 00 	sts	0x0090, r24
 514:	90 93 91 00 	sts	0x0091, r25
 518:	a0 93 92 00 	sts	0x0092, r26
 51c:	b0 93 93 00 	sts	0x0093, r27
 520:	81 e0       	ldi	r24, 0x01	; 1
 522:	80 93 70 00 	sts	0x0070, r24
 526:	6a df       	rcall	.-300    	; 0x3fc <_Z8loadSetsv>
 528:	10 92 71 00 	sts	0x0071, r1
 52c:	10 92 72 00 	sts	0x0072, r1
 530:	10 92 73 00 	sts	0x0073, r1
 534:	10 92 74 00 	sts	0x0074, r1
 538:	88 98       	cbi	0x11, 0	; 17
 53a:	08 95       	ret

0000053c <_Z8readSetsv>:
 53c:	80 91 9b 00 	lds	r24, 0x009B
 540:	87 ff       	sbrs	r24, 7
 542:	04 c0       	rjmp	.+8      	; 0x54c <_Z8readSetsv+0x10>
 544:	91 e0       	ldi	r25, 0x01	; 1
 546:	90 93 75 00 	sts	0x0075, r25
 54a:	02 c0       	rjmp	.+4      	; 0x550 <_Z8readSetsv+0x14>
 54c:	10 92 75 00 	sts	0x0075, r1
 550:	86 ff       	sbrs	r24, 6
 552:	04 c0       	rjmp	.+8      	; 0x55c <_Z8readSetsv+0x20>
 554:	91 e0       	ldi	r25, 0x01	; 1
 556:	90 93 76 00 	sts	0x0076, r25
 55a:	02 c0       	rjmp	.+4      	; 0x560 <_Z8readSetsv+0x24>
 55c:	10 92 76 00 	sts	0x0076, r1
 560:	85 ff       	sbrs	r24, 5
 562:	04 c0       	rjmp	.+8      	; 0x56c <_Z8readSetsv+0x30>
 564:	91 e0       	ldi	r25, 0x01	; 1
 566:	90 93 77 00 	sts	0x0077, r25
 56a:	02 c0       	rjmp	.+4      	; 0x570 <_Z8readSetsv+0x34>
 56c:	10 92 77 00 	sts	0x0077, r1
 570:	84 ff       	sbrs	r24, 4
 572:	04 c0       	rjmp	.+8      	; 0x57c <_Z8readSetsv+0x40>
 574:	91 e0       	ldi	r25, 0x01	; 1
 576:	90 93 78 00 	sts	0x0078, r25
 57a:	02 c0       	rjmp	.+4      	; 0x580 <_Z8readSetsv+0x44>
 57c:	10 92 78 00 	sts	0x0078, r1
 580:	83 ff       	sbrs	r24, 3
 582:	04 c0       	rjmp	.+8      	; 0x58c <_Z8readSetsv+0x50>
 584:	91 e0       	ldi	r25, 0x01	; 1
 586:	90 93 79 00 	sts	0x0079, r25
 58a:	02 c0       	rjmp	.+4      	; 0x590 <_Z8readSetsv+0x54>
 58c:	10 92 79 00 	sts	0x0079, r1
 590:	82 ff       	sbrs	r24, 2
 592:	04 c0       	rjmp	.+8      	; 0x59c <_Z8readSetsv+0x60>
 594:	91 e0       	ldi	r25, 0x01	; 1
 596:	90 93 7a 00 	sts	0x007A, r25
 59a:	02 c0       	rjmp	.+4      	; 0x5a0 <_Z8readSetsv+0x64>
 59c:	10 92 7a 00 	sts	0x007A, r1
 5a0:	81 ff       	sbrs	r24, 1
 5a2:	04 c0       	rjmp	.+8      	; 0x5ac <_Z8readSetsv+0x70>
 5a4:	91 e0       	ldi	r25, 0x01	; 1
 5a6:	90 93 7b 00 	sts	0x007B, r25
 5aa:	02 c0       	rjmp	.+4      	; 0x5b0 <_Z8readSetsv+0x74>
 5ac:	10 92 7b 00 	sts	0x007B, r1
 5b0:	80 ff       	sbrs	r24, 0
 5b2:	04 c0       	rjmp	.+8      	; 0x5bc <_Z8readSetsv+0x80>
 5b4:	81 e0       	ldi	r24, 0x01	; 1
 5b6:	80 93 7c 00 	sts	0x007C, r24
 5ba:	02 c0       	rjmp	.+4      	; 0x5c0 <_Z8readSetsv+0x84>
 5bc:	10 92 7c 00 	sts	0x007C, r1
 5c0:	80 91 9c 00 	lds	r24, 0x009C
 5c4:	86 ff       	sbrs	r24, 6
 5c6:	04 c0       	rjmp	.+8      	; 0x5d0 <_Z8readSetsv+0x94>
 5c8:	91 e0       	ldi	r25, 0x01	; 1
 5ca:	90 93 7d 00 	sts	0x007D, r25
 5ce:	02 c0       	rjmp	.+4      	; 0x5d4 <_Z8readSetsv+0x98>
 5d0:	10 92 7d 00 	sts	0x007D, r1
 5d4:	85 ff       	sbrs	r24, 5
 5d6:	04 c0       	rjmp	.+8      	; 0x5e0 <_Z8readSetsv+0xa4>
 5d8:	91 e0       	ldi	r25, 0x01	; 1
 5da:	90 93 7e 00 	sts	0x007E, r25
 5de:	02 c0       	rjmp	.+4      	; 0x5e4 <_Z8readSetsv+0xa8>
 5e0:	10 92 7e 00 	sts	0x007E, r1
 5e4:	84 ff       	sbrs	r24, 4
 5e6:	04 c0       	rjmp	.+8      	; 0x5f0 <_Z8readSetsv+0xb4>
 5e8:	91 e0       	ldi	r25, 0x01	; 1
 5ea:	90 93 7f 00 	sts	0x007F, r25
 5ee:	02 c0       	rjmp	.+4      	; 0x5f4 <_Z8readSetsv+0xb8>
 5f0:	10 92 7f 00 	sts	0x007F, r1
 5f4:	83 ff       	sbrs	r24, 3
 5f6:	04 c0       	rjmp	.+8      	; 0x600 <_Z8readSetsv+0xc4>
 5f8:	91 e0       	ldi	r25, 0x01	; 1
 5fa:	90 93 80 00 	sts	0x0080, r25
 5fe:	02 c0       	rjmp	.+4      	; 0x604 <_Z8readSetsv+0xc8>
 600:	10 92 80 00 	sts	0x0080, r1
 604:	82 ff       	sbrs	r24, 2
 606:	04 c0       	rjmp	.+8      	; 0x610 <_Z8readSetsv+0xd4>
 608:	91 e0       	ldi	r25, 0x01	; 1
 60a:	90 93 81 00 	sts	0x0081, r25
 60e:	02 c0       	rjmp	.+4      	; 0x614 <_Z8readSetsv+0xd8>
 610:	10 92 81 00 	sts	0x0081, r1
 614:	81 ff       	sbrs	r24, 1
 616:	04 c0       	rjmp	.+8      	; 0x620 <_Z8readSetsv+0xe4>
 618:	91 e0       	ldi	r25, 0x01	; 1
 61a:	90 93 82 00 	sts	0x0082, r25
 61e:	02 c0       	rjmp	.+4      	; 0x624 <_Z8readSetsv+0xe8>
 620:	10 92 82 00 	sts	0x0082, r1
 624:	80 ff       	sbrs	r24, 0
 626:	04 c0       	rjmp	.+8      	; 0x630 <_Z8readSetsv+0xf4>
 628:	81 e0       	ldi	r24, 0x01	; 1
 62a:	80 93 83 00 	sts	0x0083, r24
 62e:	02 c0       	rjmp	.+4      	; 0x634 <_Z8readSetsv+0xf8>
 630:	10 92 83 00 	sts	0x0083, r1
 634:	cb ce       	rjmp	.-618    	; 0x3cc <_Z8saveSetsv>

00000636 <_Z9applySetsv>:
 636:	80 91 75 00 	lds	r24, 0x0075
 63a:	88 23       	and	r24, r24
 63c:	11 f0       	breq	.+4      	; 0x642 <_Z9applySetsv+0xc>
 63e:	c0 9a       	sbi	0x18, 0	; 24
 640:	01 c0       	rjmp	.+2      	; 0x644 <_Z9applySetsv+0xe>
 642:	c0 98       	cbi	0x18, 0	; 24
 644:	80 91 76 00 	lds	r24, 0x0076
 648:	88 23       	and	r24, r24
 64a:	11 f0       	breq	.+4      	; 0x650 <_Z9applySetsv+0x1a>
 64c:	c1 9a       	sbi	0x18, 1	; 24
 64e:	01 c0       	rjmp	.+2      	; 0x652 <_Z9applySetsv+0x1c>
 650:	c1 98       	cbi	0x18, 1	; 24
 652:	80 91 77 00 	lds	r24, 0x0077
 656:	81 11       	cpse	r24, r1
 658:	08 c0       	rjmp	.+16     	; 0x66a <_Z9applySetsv+0x34>
 65a:	80 91 7d 00 	lds	r24, 0x007D
 65e:	88 23       	and	r24, r24
 660:	31 f0       	breq	.+12     	; 0x66e <_Z9applySetsv+0x38>
 662:	80 91 71 00 	lds	r24, 0x0071
 666:	88 23       	and	r24, r24
 668:	11 f0       	breq	.+4      	; 0x66e <_Z9applySetsv+0x38>
 66a:	c2 9a       	sbi	0x18, 2	; 24
 66c:	01 c0       	rjmp	.+2      	; 0x670 <_Z9applySetsv+0x3a>
 66e:	c2 98       	cbi	0x18, 2	; 24
 670:	80 91 78 00 	lds	r24, 0x0078
 674:	81 11       	cpse	r24, r1
 676:	08 c0       	rjmp	.+16     	; 0x688 <_Z9applySetsv+0x52>
 678:	80 91 7e 00 	lds	r24, 0x007E
 67c:	88 23       	and	r24, r24
 67e:	31 f0       	breq	.+12     	; 0x68c <_Z9applySetsv+0x56>
 680:	80 91 72 00 	lds	r24, 0x0072
 684:	88 23       	and	r24, r24
 686:	11 f0       	breq	.+4      	; 0x68c <_Z9applySetsv+0x56>
 688:	c3 9a       	sbi	0x18, 3	; 24
 68a:	01 c0       	rjmp	.+2      	; 0x68e <_Z9applySetsv+0x58>
 68c:	c3 98       	cbi	0x18, 3	; 24
 68e:	80 91 7f 00 	lds	r24, 0x007F
 692:	88 23       	and	r24, r24
 694:	11 f0       	breq	.+4      	; 0x69a <_Z9applySetsv+0x64>
 696:	aa 9a       	sbi	0x15, 2	; 21
 698:	01 c0       	rjmp	.+2      	; 0x69c <_Z9applySetsv+0x66>
 69a:	aa 98       	cbi	0x15, 2	; 21
 69c:	80 91 80 00 	lds	r24, 0x0080
 6a0:	88 23       	and	r24, r24
 6a2:	11 f0       	breq	.+4      	; 0x6a8 <_Z9applySetsv+0x72>
 6a4:	ab 9a       	sbi	0x15, 3	; 21
 6a6:	08 95       	ret
 6a8:	ab 98       	cbi	0x15, 3	; 21
 6aa:	08 95       	ret

000006ac <_Z13seekButtPressv>:
 6ac:	80 91 79 00 	lds	r24, 0x0079
 6b0:	88 23       	and	r24, r24
 6b2:	09 f4       	brne	.+2      	; 0x6b6 <_Z13seekButtPressv+0xa>
 6b4:	4d c0       	rjmp	.+154    	; 0x750 <_Z13seekButtPressv+0xa4>
 6b6:	80 91 84 00 	lds	r24, 0x0084
 6ba:	90 91 85 00 	lds	r25, 0x0085
 6be:	a0 91 86 00 	lds	r26, 0x0086
 6c2:	b0 91 87 00 	lds	r27, 0x0087
 6c6:	8f 3f       	cpi	r24, 0xFF	; 255
 6c8:	2f ef       	ldi	r18, 0xFF	; 255
 6ca:	92 07       	cpc	r25, r18
 6cc:	a2 07       	cpc	r26, r18
 6ce:	b2 07       	cpc	r27, r18
 6d0:	79 f1       	breq	.+94     	; 0x730 <_Z13seekButtPressv+0x84>
 6d2:	40 91 94 00 	lds	r20, 0x0094
 6d6:	50 91 95 00 	lds	r21, 0x0095
 6da:	60 91 96 00 	lds	r22, 0x0096
 6de:	70 91 97 00 	lds	r23, 0x0097
 6e2:	48 17       	cp	r20, r24
 6e4:	59 07       	cpc	r21, r25
 6e6:	6a 07       	cpc	r22, r26
 6e8:	7b 07       	cpc	r23, r27
 6ea:	74 f4       	brge	.+28     	; 0x708 <_Z13seekButtPressv+0x5c>
 6ec:	40 5a       	subi	r20, 0xA0	; 160
 6ee:	55 41       	sbci	r21, 0x15	; 21
 6f0:	6f 4f       	sbci	r22, 0xFF	; 255
 6f2:	7f 4f       	sbci	r23, 0xFF	; 255
 6f4:	48 1b       	sub	r20, r24
 6f6:	59 0b       	sbc	r21, r25
 6f8:	6a 0b       	sbc	r22, r26
 6fa:	7b 0b       	sbc	r23, r27
 6fc:	41 33       	cpi	r20, 0x31	; 49
 6fe:	55 47       	sbci	r21, 0x75	; 117
 700:	61 05       	cpc	r22, r1
 702:	71 05       	cpc	r23, r1
 704:	ac f0       	brlt	.+42     	; 0x730 <_Z13seekButtPressv+0x84>
 706:	09 c0       	rjmp	.+18     	; 0x71a <_Z13seekButtPressv+0x6e>
 708:	48 1b       	sub	r20, r24
 70a:	59 0b       	sbc	r21, r25
 70c:	6a 0b       	sbc	r22, r26
 70e:	7b 0b       	sbc	r23, r27
 710:	41 33       	cpi	r20, 0x31	; 49
 712:	55 47       	sbci	r21, 0x75	; 117
 714:	61 05       	cpc	r22, r1
 716:	71 05       	cpc	r23, r1
 718:	5c f0       	brlt	.+22     	; 0x730 <_Z13seekButtPressv+0x84>
 71a:	8f ef       	ldi	r24, 0xFF	; 255
 71c:	9f ef       	ldi	r25, 0xFF	; 255
 71e:	dc 01       	movw	r26, r24
 720:	80 93 84 00 	sts	0x0084, r24
 724:	90 93 85 00 	sts	0x0085, r25
 728:	a0 93 86 00 	sts	0x0086, r26
 72c:	b0 93 87 00 	sts	0x0087, r27
 730:	84 99       	sbic	0x10, 4	; 16
 732:	0e c0       	rjmp	.+28     	; 0x750 <_Z13seekButtPressv+0xa4>
 734:	80 91 84 00 	lds	r24, 0x0084
 738:	90 91 85 00 	lds	r25, 0x0085
 73c:	a0 91 86 00 	lds	r26, 0x0086
 740:	b0 91 87 00 	lds	r27, 0x0087
 744:	8f 3f       	cpi	r24, 0xFF	; 255
 746:	9f 4f       	sbci	r25, 0xFF	; 255
 748:	af 4f       	sbci	r26, 0xFF	; 255
 74a:	bf 4f       	sbci	r27, 0xFF	; 255
 74c:	09 f4       	brne	.+2      	; 0x750 <_Z13seekButtPressv+0xa4>
 74e:	ff c0       	rjmp	.+510    	; 0x94e <_Z13seekButtPressv+0x2a2>
 750:	80 91 7a 00 	lds	r24, 0x007A
 754:	88 23       	and	r24, r24
 756:	09 f4       	brne	.+2      	; 0x75a <_Z13seekButtPressv+0xae>
 758:	4d c0       	rjmp	.+154    	; 0x7f4 <_Z13seekButtPressv+0x148>
 75a:	80 91 88 00 	lds	r24, 0x0088
 75e:	90 91 89 00 	lds	r25, 0x0089
 762:	a0 91 8a 00 	lds	r26, 0x008A
 766:	b0 91 8b 00 	lds	r27, 0x008B
 76a:	8f 3f       	cpi	r24, 0xFF	; 255
 76c:	2f ef       	ldi	r18, 0xFF	; 255
 76e:	92 07       	cpc	r25, r18
 770:	a2 07       	cpc	r26, r18
 772:	b2 07       	cpc	r27, r18
 774:	79 f1       	breq	.+94     	; 0x7d4 <_Z13seekButtPressv+0x128>
 776:	40 91 94 00 	lds	r20, 0x0094
 77a:	50 91 95 00 	lds	r21, 0x0095
 77e:	60 91 96 00 	lds	r22, 0x0096
 782:	70 91 97 00 	lds	r23, 0x0097
 786:	48 17       	cp	r20, r24
 788:	59 07       	cpc	r21, r25
 78a:	6a 07       	cpc	r22, r26
 78c:	7b 07       	cpc	r23, r27
 78e:	74 f4       	brge	.+28     	; 0x7ac <_Z13seekButtPressv+0x100>
 790:	40 5a       	subi	r20, 0xA0	; 160
 792:	55 41       	sbci	r21, 0x15	; 21
 794:	6f 4f       	sbci	r22, 0xFF	; 255
 796:	7f 4f       	sbci	r23, 0xFF	; 255
 798:	48 1b       	sub	r20, r24
 79a:	59 0b       	sbc	r21, r25
 79c:	6a 0b       	sbc	r22, r26
 79e:	7b 0b       	sbc	r23, r27
 7a0:	41 33       	cpi	r20, 0x31	; 49
 7a2:	55 47       	sbci	r21, 0x75	; 117
 7a4:	61 05       	cpc	r22, r1
 7a6:	71 05       	cpc	r23, r1
 7a8:	ac f0       	brlt	.+42     	; 0x7d4 <_Z13seekButtPressv+0x128>
 7aa:	09 c0       	rjmp	.+18     	; 0x7be <_Z13seekButtPressv+0x112>
 7ac:	48 1b       	sub	r20, r24
 7ae:	59 0b       	sbc	r21, r25
 7b0:	6a 0b       	sbc	r22, r26
 7b2:	7b 0b       	sbc	r23, r27
 7b4:	41 33       	cpi	r20, 0x31	; 49
 7b6:	55 47       	sbci	r21, 0x75	; 117
 7b8:	61 05       	cpc	r22, r1
 7ba:	71 05       	cpc	r23, r1
 7bc:	5c f0       	brlt	.+22     	; 0x7d4 <_Z13seekButtPressv+0x128>
 7be:	8f ef       	ldi	r24, 0xFF	; 255
 7c0:	9f ef       	ldi	r25, 0xFF	; 255
 7c2:	dc 01       	movw	r26, r24
 7c4:	80 93 88 00 	sts	0x0088, r24
 7c8:	90 93 89 00 	sts	0x0089, r25
 7cc:	a0 93 8a 00 	sts	0x008A, r26
 7d0:	b0 93 8b 00 	sts	0x008B, r27
 7d4:	85 99       	sbic	0x10, 5	; 16
 7d6:	0e c0       	rjmp	.+28     	; 0x7f4 <_Z13seekButtPressv+0x148>
 7d8:	80 91 88 00 	lds	r24, 0x0088
 7dc:	90 91 89 00 	lds	r25, 0x0089
 7e0:	a0 91 8a 00 	lds	r26, 0x008A
 7e4:	b0 91 8b 00 	lds	r27, 0x008B
 7e8:	8f 3f       	cpi	r24, 0xFF	; 255
 7ea:	9f 4f       	sbci	r25, 0xFF	; 255
 7ec:	af 4f       	sbci	r26, 0xFF	; 255
 7ee:	bf 4f       	sbci	r27, 0xFF	; 255
 7f0:	09 f4       	brne	.+2      	; 0x7f4 <_Z13seekButtPressv+0x148>
 7f2:	c1 c0       	rjmp	.+386    	; 0x976 <_Z13seekButtPressv+0x2ca>
 7f4:	80 91 7b 00 	lds	r24, 0x007B
 7f8:	88 23       	and	r24, r24
 7fa:	09 f4       	brne	.+2      	; 0x7fe <_Z13seekButtPressv+0x152>
 7fc:	51 c0       	rjmp	.+162    	; 0x8a0 <_Z13seekButtPressv+0x1f4>
 7fe:	80 91 7d 00 	lds	r24, 0x007D
 802:	81 11       	cpse	r24, r1
 804:	4d c0       	rjmp	.+154    	; 0x8a0 <_Z13seekButtPressv+0x1f4>
 806:	80 91 8c 00 	lds	r24, 0x008C
 80a:	90 91 8d 00 	lds	r25, 0x008D
 80e:	a0 91 8e 00 	lds	r26, 0x008E
 812:	b0 91 8f 00 	lds	r27, 0x008F
 816:	8f 3f       	cpi	r24, 0xFF	; 255
 818:	2f ef       	ldi	r18, 0xFF	; 255
 81a:	92 07       	cpc	r25, r18
 81c:	a2 07       	cpc	r26, r18
 81e:	b2 07       	cpc	r27, r18
 820:	79 f1       	breq	.+94     	; 0x880 <_Z13seekButtPressv+0x1d4>
 822:	40 91 94 00 	lds	r20, 0x0094
 826:	50 91 95 00 	lds	r21, 0x0095
 82a:	60 91 96 00 	lds	r22, 0x0096
 82e:	70 91 97 00 	lds	r23, 0x0097
 832:	48 17       	cp	r20, r24
 834:	59 07       	cpc	r21, r25
 836:	6a 07       	cpc	r22, r26
 838:	7b 07       	cpc	r23, r27
 83a:	74 f4       	brge	.+28     	; 0x858 <_Z13seekButtPressv+0x1ac>
 83c:	40 5a       	subi	r20, 0xA0	; 160
 83e:	55 41       	sbci	r21, 0x15	; 21
 840:	6f 4f       	sbci	r22, 0xFF	; 255
 842:	7f 4f       	sbci	r23, 0xFF	; 255
 844:	48 1b       	sub	r20, r24
 846:	59 0b       	sbc	r21, r25
 848:	6a 0b       	sbc	r22, r26
 84a:	7b 0b       	sbc	r23, r27
 84c:	41 33       	cpi	r20, 0x31	; 49
 84e:	55 47       	sbci	r21, 0x75	; 117
 850:	61 05       	cpc	r22, r1
 852:	71 05       	cpc	r23, r1
 854:	ac f0       	brlt	.+42     	; 0x880 <_Z13seekButtPressv+0x1d4>
 856:	09 c0       	rjmp	.+18     	; 0x86a <_Z13seekButtPressv+0x1be>
 858:	48 1b       	sub	r20, r24
 85a:	59 0b       	sbc	r21, r25
 85c:	6a 0b       	sbc	r22, r26
 85e:	7b 0b       	sbc	r23, r27
 860:	41 33       	cpi	r20, 0x31	; 49
 862:	55 47       	sbci	r21, 0x75	; 117
 864:	61 05       	cpc	r22, r1
 866:	71 05       	cpc	r23, r1
 868:	5c f0       	brlt	.+22     	; 0x880 <_Z13seekButtPressv+0x1d4>
 86a:	8f ef       	ldi	r24, 0xFF	; 255
 86c:	9f ef       	ldi	r25, 0xFF	; 255
 86e:	dc 01       	movw	r26, r24
 870:	80 93 8c 00 	sts	0x008C, r24
 874:	90 93 8d 00 	sts	0x008D, r25
 878:	a0 93 8e 00 	sts	0x008E, r26
 87c:	b0 93 8f 00 	sts	0x008F, r27
 880:	86 99       	sbic	0x10, 6	; 16
 882:	0e c0       	rjmp	.+28     	; 0x8a0 <_Z13seekButtPressv+0x1f4>
 884:	80 91 8c 00 	lds	r24, 0x008C
 888:	90 91 8d 00 	lds	r25, 0x008D
 88c:	a0 91 8e 00 	lds	r26, 0x008E
 890:	b0 91 8f 00 	lds	r27, 0x008F
 894:	8f 3f       	cpi	r24, 0xFF	; 255
 896:	9f 4f       	sbci	r25, 0xFF	; 255
 898:	af 4f       	sbci	r26, 0xFF	; 255
 89a:	bf 4f       	sbci	r27, 0xFF	; 255
 89c:	09 f4       	brne	.+2      	; 0x8a0 <_Z13seekButtPressv+0x1f4>
 89e:	7f c0       	rjmp	.+254    	; 0x99e <_Z13seekButtPressv+0x2f2>
 8a0:	80 91 7c 00 	lds	r24, 0x007C
 8a4:	88 23       	and	r24, r24
 8a6:	09 f4       	brne	.+2      	; 0x8aa <_Z13seekButtPressv+0x1fe>
 8a8:	a1 c0       	rjmp	.+322    	; 0x9ec <_Z13seekButtPressv+0x340>
 8aa:	80 91 7e 00 	lds	r24, 0x007E
 8ae:	81 11       	cpse	r24, r1
 8b0:	9d c0       	rjmp	.+314    	; 0x9ec <_Z13seekButtPressv+0x340>
 8b2:	80 91 90 00 	lds	r24, 0x0090
 8b6:	90 91 91 00 	lds	r25, 0x0091
 8ba:	a0 91 92 00 	lds	r26, 0x0092
 8be:	b0 91 93 00 	lds	r27, 0x0093
 8c2:	8f 3f       	cpi	r24, 0xFF	; 255
 8c4:	2f ef       	ldi	r18, 0xFF	; 255
 8c6:	92 07       	cpc	r25, r18
 8c8:	a2 07       	cpc	r26, r18
 8ca:	b2 07       	cpc	r27, r18
 8cc:	79 f1       	breq	.+94     	; 0x92c <_Z13seekButtPressv+0x280>
 8ce:	40 91 94 00 	lds	r20, 0x0094
 8d2:	50 91 95 00 	lds	r21, 0x0095
 8d6:	60 91 96 00 	lds	r22, 0x0096
 8da:	70 91 97 00 	lds	r23, 0x0097
 8de:	48 17       	cp	r20, r24
 8e0:	59 07       	cpc	r21, r25
 8e2:	6a 07       	cpc	r22, r26
 8e4:	7b 07       	cpc	r23, r27
 8e6:	74 f4       	brge	.+28     	; 0x904 <_Z13seekButtPressv+0x258>
 8e8:	40 5a       	subi	r20, 0xA0	; 160
 8ea:	55 41       	sbci	r21, 0x15	; 21
 8ec:	6f 4f       	sbci	r22, 0xFF	; 255
 8ee:	7f 4f       	sbci	r23, 0xFF	; 255
 8f0:	48 1b       	sub	r20, r24
 8f2:	59 0b       	sbc	r21, r25
 8f4:	6a 0b       	sbc	r22, r26
 8f6:	7b 0b       	sbc	r23, r27
 8f8:	41 33       	cpi	r20, 0x31	; 49
 8fa:	55 47       	sbci	r21, 0x75	; 117
 8fc:	61 05       	cpc	r22, r1
 8fe:	71 05       	cpc	r23, r1
 900:	ac f0       	brlt	.+42     	; 0x92c <_Z13seekButtPressv+0x280>
 902:	09 c0       	rjmp	.+18     	; 0x916 <_Z13seekButtPressv+0x26a>
 904:	48 1b       	sub	r20, r24
 906:	59 0b       	sbc	r21, r25
 908:	6a 0b       	sbc	r22, r26
 90a:	7b 0b       	sbc	r23, r27
 90c:	41 33       	cpi	r20, 0x31	; 49
 90e:	55 47       	sbci	r21, 0x75	; 117
 910:	61 05       	cpc	r22, r1
 912:	71 05       	cpc	r23, r1
 914:	5c f0       	brlt	.+22     	; 0x92c <_Z13seekButtPressv+0x280>
 916:	8f ef       	ldi	r24, 0xFF	; 255
 918:	9f ef       	ldi	r25, 0xFF	; 255
 91a:	dc 01       	movw	r26, r24
 91c:	80 93 90 00 	sts	0x0090, r24
 920:	90 93 91 00 	sts	0x0091, r25
 924:	a0 93 92 00 	sts	0x0092, r26
 928:	b0 93 93 00 	sts	0x0093, r27
 92c:	87 99       	sbic	0x10, 7	; 16
 92e:	5e c0       	rjmp	.+188    	; 0x9ec <_Z13seekButtPressv+0x340>
 930:	80 91 90 00 	lds	r24, 0x0090
 934:	90 91 91 00 	lds	r25, 0x0091
 938:	a0 91 92 00 	lds	r26, 0x0092
 93c:	b0 91 93 00 	lds	r27, 0x0093
 940:	8f 3f       	cpi	r24, 0xFF	; 255
 942:	9f 4f       	sbci	r25, 0xFF	; 255
 944:	af 4f       	sbci	r26, 0xFF	; 255
 946:	bf 4f       	sbci	r27, 0xFF	; 255
 948:	09 f0       	breq	.+2      	; 0x94c <_Z13seekButtPressv+0x2a0>
 94a:	50 c0       	rjmp	.+160    	; 0x9ec <_Z13seekButtPressv+0x340>
 94c:	3c c0       	rjmp	.+120    	; 0x9c6 <_Z13seekButtPressv+0x31a>
 94e:	85 e7       	ldi	r24, 0x75	; 117
 950:	90 e0       	ldi	r25, 0x00	; 0
 952:	33 dd       	rcall	.-1434   	; 0x3ba <_Z11changeValuePb>
 954:	80 91 94 00 	lds	r24, 0x0094
 958:	90 91 95 00 	lds	r25, 0x0095
 95c:	a0 91 96 00 	lds	r26, 0x0096
 960:	b0 91 97 00 	lds	r27, 0x0097
 964:	80 93 84 00 	sts	0x0084, r24
 968:	90 93 85 00 	sts	0x0085, r25
 96c:	a0 93 86 00 	sts	0x0086, r26
 970:	b0 93 87 00 	sts	0x0087, r27
 974:	ed ce       	rjmp	.-550    	; 0x750 <_Z13seekButtPressv+0xa4>
 976:	86 e7       	ldi	r24, 0x76	; 118
 978:	90 e0       	ldi	r25, 0x00	; 0
 97a:	1f dd       	rcall	.-1474   	; 0x3ba <_Z11changeValuePb>
 97c:	80 91 94 00 	lds	r24, 0x0094
 980:	90 91 95 00 	lds	r25, 0x0095
 984:	a0 91 96 00 	lds	r26, 0x0096
 988:	b0 91 97 00 	lds	r27, 0x0097
 98c:	80 93 88 00 	sts	0x0088, r24
 990:	90 93 89 00 	sts	0x0089, r25
 994:	a0 93 8a 00 	sts	0x008A, r26
 998:	b0 93 8b 00 	sts	0x008B, r27
 99c:	2b cf       	rjmp	.-426    	; 0x7f4 <_Z13seekButtPressv+0x148>
 99e:	87 e7       	ldi	r24, 0x77	; 119
 9a0:	90 e0       	ldi	r25, 0x00	; 0
 9a2:	0b dd       	rcall	.-1514   	; 0x3ba <_Z11changeValuePb>
 9a4:	80 91 94 00 	lds	r24, 0x0094
 9a8:	90 91 95 00 	lds	r25, 0x0095
 9ac:	a0 91 96 00 	lds	r26, 0x0096
 9b0:	b0 91 97 00 	lds	r27, 0x0097
 9b4:	80 93 8c 00 	sts	0x008C, r24
 9b8:	90 93 8d 00 	sts	0x008D, r25
 9bc:	a0 93 8e 00 	sts	0x008E, r26
 9c0:	b0 93 8f 00 	sts	0x008F, r27
 9c4:	6d cf       	rjmp	.-294    	; 0x8a0 <_Z13seekButtPressv+0x1f4>
 9c6:	88 e7       	ldi	r24, 0x78	; 120
 9c8:	90 e0       	ldi	r25, 0x00	; 0
 9ca:	f7 dc       	rcall	.-1554   	; 0x3ba <_Z11changeValuePb>
 9cc:	80 91 94 00 	lds	r24, 0x0094
 9d0:	90 91 95 00 	lds	r25, 0x0095
 9d4:	a0 91 96 00 	lds	r26, 0x0096
 9d8:	b0 91 97 00 	lds	r27, 0x0097
 9dc:	80 93 90 00 	sts	0x0090, r24
 9e0:	90 93 91 00 	sts	0x0091, r25
 9e4:	a0 93 92 00 	sts	0x0092, r26
 9e8:	b0 93 93 00 	sts	0x0093, r27
 9ec:	08 95       	ret

000009ee <_Z6seekDDv>:
 9ee:	0f 93       	push	r16
 9f0:	1f 93       	push	r17
 9f2:	80 91 7d 00 	lds	r24, 0x007D
 9f6:	88 23       	and	r24, r24
 9f8:	51 f1       	breq	.+84     	; 0xa4e <_Z6seekDDv+0x60>
 9fa:	80 91 73 00 	lds	r24, 0x0073
 9fe:	88 23       	and	r24, r24
 a00:	b1 f0       	breq	.+44     	; 0xa2e <_Z6seekDDv+0x40>
 a02:	b8 db       	rcall	.-2192   	; 0x174 <_Z6millisv>
 a04:	00 91 6c 00 	lds	r16, 0x006C
 a08:	10 91 6d 00 	lds	r17, 0x006D
 a0c:	20 91 6e 00 	lds	r18, 0x006E
 a10:	30 91 6f 00 	lds	r19, 0x006F
 a14:	60 1b       	sub	r22, r16
 a16:	71 0b       	sbc	r23, r17
 a18:	82 0b       	sbc	r24, r18
 a1a:	93 0b       	sbc	r25, r19
 a1c:	6b 30       	cpi	r22, 0x0B	; 11
 a1e:	71 05       	cpc	r23, r1
 a20:	81 05       	cpc	r24, r1
 a22:	91 05       	cpc	r25, r1
 a24:	20 f0       	brcs	.+8      	; 0xa2e <_Z6seekDDv+0x40>
 a26:	10 92 73 00 	sts	0x0073, r1
 a2a:	10 92 71 00 	sts	0x0071, r1
 a2e:	86 99       	sbic	0x10, 6	; 16
 a30:	0e c0       	rjmp	.+28     	; 0xa4e <_Z6seekDDv+0x60>
 a32:	81 e0       	ldi	r24, 0x01	; 1
 a34:	80 93 71 00 	sts	0x0071, r24
 a38:	80 93 73 00 	sts	0x0073, r24
 a3c:	9b db       	rcall	.-2250   	; 0x174 <_Z6millisv>
 a3e:	60 93 6c 00 	sts	0x006C, r22
 a42:	70 93 6d 00 	sts	0x006D, r23
 a46:	80 93 6e 00 	sts	0x006E, r24
 a4a:	90 93 6f 00 	sts	0x006F, r25
 a4e:	80 91 7e 00 	lds	r24, 0x007E
 a52:	88 23       	and	r24, r24
 a54:	a9 f1       	breq	.+106    	; 0xac0 <_Z6seekDDv+0xd2>
 a56:	80 91 74 00 	lds	r24, 0x0074
 a5a:	88 23       	and	r24, r24
 a5c:	f1 f0       	breq	.+60     	; 0xa9a <_Z6seekDDv+0xac>
 a5e:	8a db       	rcall	.-2284   	; 0x174 <_Z6millisv>
 a60:	00 91 68 00 	lds	r16, 0x0068
 a64:	10 91 69 00 	lds	r17, 0x0069
 a68:	20 91 6a 00 	lds	r18, 0x006A
 a6c:	30 91 6b 00 	lds	r19, 0x006B
 a70:	60 1b       	sub	r22, r16
 a72:	71 0b       	sbc	r23, r17
 a74:	82 0b       	sbc	r24, r18
 a76:	93 0b       	sbc	r25, r19
 a78:	00 91 60 00 	lds	r16, 0x0060
 a7c:	10 91 61 00 	lds	r17, 0x0061
 a80:	20 91 62 00 	lds	r18, 0x0062
 a84:	30 91 63 00 	lds	r19, 0x0063
 a88:	06 17       	cp	r16, r22
 a8a:	17 07       	cpc	r17, r23
 a8c:	28 07       	cpc	r18, r24
 a8e:	39 07       	cpc	r19, r25
 a90:	20 f4       	brcc	.+8      	; 0xa9a <_Z6seekDDv+0xac>
 a92:	10 92 74 00 	sts	0x0074, r1
 a96:	10 92 72 00 	sts	0x0072, r1
 a9a:	80 b3       	in	r24, 0x10	; 16
 a9c:	88 1f       	adc	r24, r24
 a9e:	88 27       	eor	r24, r24
 aa0:	88 1f       	adc	r24, r24
 aa2:	81 30       	cpi	r24, 0x01	; 1
 aa4:	69 f4       	brne	.+26     	; 0xac0 <_Z6seekDDv+0xd2>
 aa6:	80 93 72 00 	sts	0x0072, r24
 aaa:	80 93 74 00 	sts	0x0074, r24
 aae:	62 db       	rcall	.-2364   	; 0x174 <_Z6millisv>
 ab0:	60 93 68 00 	sts	0x0068, r22
 ab4:	70 93 69 00 	sts	0x0069, r23
 ab8:	80 93 6a 00 	sts	0x006A, r24
 abc:	90 93 6b 00 	sts	0x006B, r25
 ac0:	1f 91       	pop	r17
 ac2:	0f 91       	pop	r16
 ac4:	08 95       	ret

00000ac6 <_Z7sendAllv>:
 ac6:	cf 93       	push	r28
 ac8:	df 93       	push	r29
 aca:	cd b7       	in	r28, 0x3d	; 61
 acc:	de b7       	in	r29, 0x3e	; 62
 ace:	2c 97       	sbiw	r28, 0x0c	; 12
 ad0:	0f b6       	in	r0, 0x3f	; 63
 ad2:	f8 94       	cli
 ad4:	de bf       	out	0x3e, r29	; 62
 ad6:	0f be       	out	0x3f, r0	; 63
 ad8:	cd bf       	out	0x3d, r28	; 61
 ada:	19 82       	std	Y+1, r1	; 0x01
 adc:	1a 82       	std	Y+2, r1	; 0x02
 ade:	1b 82       	std	Y+3, r1	; 0x03
 ae0:	1c 82       	std	Y+4, r1	; 0x04
 ae2:	1d 82       	std	Y+5, r1	; 0x05
 ae4:	1e 82       	std	Y+6, r1	; 0x06
 ae6:	1f 82       	std	Y+7, r1	; 0x07
 ae8:	18 86       	std	Y+8, r1	; 0x08
 aea:	19 86       	std	Y+9, r1	; 0x09
 aec:	1a 86       	std	Y+10, r1	; 0x0a
 aee:	1b 86       	std	Y+11, r1	; 0x0b
 af0:	1c 86       	std	Y+12, r1	; 0x0c
 af2:	90 9a       	sbi	0x12, 0	; 18
 af4:	92 9a       	sbi	0x12, 2	; 18
 af6:	85 e0       	ldi	r24, 0x05	; 5
 af8:	89 83       	std	Y+1, r24	; 0x01
 afa:	80 91 75 00 	lds	r24, 0x0075
 afe:	88 23       	and	r24, r24
 b00:	19 f0       	breq	.+6      	; 0xb08 <_Z7sendAllv+0x42>
 b02:	8a 81       	ldd	r24, Y+2	; 0x02
 b04:	80 68       	ori	r24, 0x80	; 128
 b06:	8a 83       	std	Y+2, r24	; 0x02
 b08:	80 91 76 00 	lds	r24, 0x0076
 b0c:	88 23       	and	r24, r24
 b0e:	19 f0       	breq	.+6      	; 0xb16 <_Z7sendAllv+0x50>
 b10:	8a 81       	ldd	r24, Y+2	; 0x02
 b12:	80 64       	ori	r24, 0x40	; 64
 b14:	8a 83       	std	Y+2, r24	; 0x02
 b16:	80 91 77 00 	lds	r24, 0x0077
 b1a:	88 23       	and	r24, r24
 b1c:	19 f0       	breq	.+6      	; 0xb24 <_Z7sendAllv+0x5e>
 b1e:	8a 81       	ldd	r24, Y+2	; 0x02
 b20:	80 62       	ori	r24, 0x20	; 32
 b22:	8a 83       	std	Y+2, r24	; 0x02
 b24:	80 91 78 00 	lds	r24, 0x0078
 b28:	88 23       	and	r24, r24
 b2a:	19 f0       	breq	.+6      	; 0xb32 <_Z7sendAllv+0x6c>
 b2c:	8a 81       	ldd	r24, Y+2	; 0x02
 b2e:	80 61       	ori	r24, 0x10	; 16
 b30:	8a 83       	std	Y+2, r24	; 0x02
 b32:	80 91 79 00 	lds	r24, 0x0079
 b36:	88 23       	and	r24, r24
 b38:	19 f0       	breq	.+6      	; 0xb40 <_Z7sendAllv+0x7a>
 b3a:	8a 81       	ldd	r24, Y+2	; 0x02
 b3c:	88 60       	ori	r24, 0x08	; 8
 b3e:	8a 83       	std	Y+2, r24	; 0x02
 b40:	80 91 7a 00 	lds	r24, 0x007A
 b44:	88 23       	and	r24, r24
 b46:	19 f0       	breq	.+6      	; 0xb4e <_Z7sendAllv+0x88>
 b48:	8a 81       	ldd	r24, Y+2	; 0x02
 b4a:	84 60       	ori	r24, 0x04	; 4
 b4c:	8a 83       	std	Y+2, r24	; 0x02
 b4e:	80 91 7b 00 	lds	r24, 0x007B
 b52:	88 23       	and	r24, r24
 b54:	19 f0       	breq	.+6      	; 0xb5c <_Z7sendAllv+0x96>
 b56:	8a 81       	ldd	r24, Y+2	; 0x02
 b58:	82 60       	ori	r24, 0x02	; 2
 b5a:	8a 83       	std	Y+2, r24	; 0x02
 b5c:	80 91 7c 00 	lds	r24, 0x007C
 b60:	88 23       	and	r24, r24
 b62:	19 f0       	breq	.+6      	; 0xb6a <_Z7sendAllv+0xa4>
 b64:	8a 81       	ldd	r24, Y+2	; 0x02
 b66:	81 60       	ori	r24, 0x01	; 1
 b68:	8a 83       	std	Y+2, r24	; 0x02
 b6a:	80 91 7d 00 	lds	r24, 0x007D
 b6e:	88 23       	and	r24, r24
 b70:	19 f0       	breq	.+6      	; 0xb78 <_Z7sendAllv+0xb2>
 b72:	8b 81       	ldd	r24, Y+3	; 0x03
 b74:	80 64       	ori	r24, 0x40	; 64
 b76:	8b 83       	std	Y+3, r24	; 0x03
 b78:	80 91 7e 00 	lds	r24, 0x007E
 b7c:	88 23       	and	r24, r24
 b7e:	19 f0       	breq	.+6      	; 0xb86 <_Z7sendAllv+0xc0>
 b80:	8b 81       	ldd	r24, Y+3	; 0x03
 b82:	80 62       	ori	r24, 0x20	; 32
 b84:	8b 83       	std	Y+3, r24	; 0x03
 b86:	80 91 7f 00 	lds	r24, 0x007F
 b8a:	88 23       	and	r24, r24
 b8c:	19 f0       	breq	.+6      	; 0xb94 <_Z7sendAllv+0xce>
 b8e:	8b 81       	ldd	r24, Y+3	; 0x03
 b90:	80 61       	ori	r24, 0x10	; 16
 b92:	8b 83       	std	Y+3, r24	; 0x03
 b94:	80 91 80 00 	lds	r24, 0x0080
 b98:	88 23       	and	r24, r24
 b9a:	19 f0       	breq	.+6      	; 0xba2 <_Z7sendAllv+0xdc>
 b9c:	8b 81       	ldd	r24, Y+3	; 0x03
 b9e:	88 60       	ori	r24, 0x08	; 8
 ba0:	8b 83       	std	Y+3, r24	; 0x03
 ba2:	80 91 81 00 	lds	r24, 0x0081
 ba6:	88 23       	and	r24, r24
 ba8:	19 f0       	breq	.+6      	; 0xbb0 <_Z7sendAllv+0xea>
 baa:	8b 81       	ldd	r24, Y+3	; 0x03
 bac:	84 60       	ori	r24, 0x04	; 4
 bae:	8b 83       	std	Y+3, r24	; 0x03
 bb0:	80 91 82 00 	lds	r24, 0x0082
 bb4:	88 23       	and	r24, r24
 bb6:	19 f0       	breq	.+6      	; 0xbbe <_Z7sendAllv+0xf8>
 bb8:	8b 81       	ldd	r24, Y+3	; 0x03
 bba:	82 60       	ori	r24, 0x02	; 2
 bbc:	8b 83       	std	Y+3, r24	; 0x03
 bbe:	80 91 83 00 	lds	r24, 0x0083
 bc2:	88 23       	and	r24, r24
 bc4:	19 f0       	breq	.+6      	; 0xbcc <_Z7sendAllv+0x106>
 bc6:	8b 81       	ldd	r24, Y+3	; 0x03
 bc8:	81 60       	ori	r24, 0x01	; 1
 bca:	8b 83       	std	Y+3, r24	; 0x03
 bcc:	81 e4       	ldi	r24, 0x41	; 65
 bce:	72 da       	rcall	.-2844   	; 0xb4 <_Z6AnReadh>
 bd0:	29 2f       	mov	r18, r25
 bd2:	33 27       	eor	r19, r19
 bd4:	27 fd       	sbrc	r18, 7
 bd6:	3a 95       	dec	r19
 bd8:	32 2f       	mov	r19, r18
 bda:	2c 83       	std	Y+4, r18	; 0x04
 bdc:	48 2f       	mov	r20, r24
 bde:	8d 83       	std	Y+5, r24	; 0x05
 be0:	84 9b       	sbis	0x10, 4	; 16
 be2:	03 c0       	rjmp	.+6      	; 0xbea <_Z7sendAllv+0x124>
 be4:	8e 81       	ldd	r24, Y+6	; 0x06
 be6:	80 68       	ori	r24, 0x80	; 128
 be8:	8e 83       	std	Y+6, r24	; 0x06
 bea:	85 9b       	sbis	0x10, 5	; 16
 bec:	03 c0       	rjmp	.+6      	; 0xbf4 <_Z7sendAllv+0x12e>
 bee:	8e 81       	ldd	r24, Y+6	; 0x06
 bf0:	80 64       	ori	r24, 0x40	; 64
 bf2:	8e 83       	std	Y+6, r24	; 0x06
 bf4:	86 9b       	sbis	0x10, 6	; 16
 bf6:	03 c0       	rjmp	.+6      	; 0xbfe <_Z7sendAllv+0x138>
 bf8:	8e 81       	ldd	r24, Y+6	; 0x06
 bfa:	80 62       	ori	r24, 0x20	; 32
 bfc:	8e 83       	std	Y+6, r24	; 0x06
 bfe:	87 9b       	sbis	0x10, 7	; 16
 c00:	03 c0       	rjmp	.+6      	; 0xc08 <_Z7sendAllv+0x142>
 c02:	8e 81       	ldd	r24, Y+6	; 0x06
 c04:	80 61       	ori	r24, 0x10	; 16
 c06:	8e 83       	std	Y+6, r24	; 0x06
 c08:	20 91 66 00 	lds	r18, 0x0066
 c0c:	2f 83       	std	Y+7, r18	; 0x07
 c0e:	90 91 64 00 	lds	r25, 0x0064
 c12:	98 87       	std	Y+8, r25	; 0x08
 c14:	83 9b       	sbis	0x10, 3	; 16
 c16:	03 c0       	rjmp	.+6      	; 0xc1e <_Z7sendAllv+0x158>
 c18:	89 85       	ldd	r24, Y+9	; 0x09
 c1a:	80 68       	ori	r24, 0x80	; 128
 c1c:	89 87       	std	Y+9, r24	; 0x09
 c1e:	b4 9b       	sbis	0x16, 4	; 22
 c20:	03 c0       	rjmp	.+6      	; 0xc28 <_Z7sendAllv+0x162>
 c22:	89 85       	ldd	r24, Y+9	; 0x09
 c24:	80 64       	ori	r24, 0x40	; 64
 c26:	89 87       	std	Y+9, r24	; 0x09
 c28:	9c 9b       	sbis	0x13, 4	; 19
 c2a:	03 c0       	rjmp	.+6      	; 0xc32 <_Z7sendAllv+0x16c>
 c2c:	89 85       	ldd	r24, Y+9	; 0x09
 c2e:	80 62       	ori	r24, 0x20	; 32
 c30:	89 87       	std	Y+9, r24	; 0x09
 c32:	9d 9b       	sbis	0x13, 5	; 19
 c34:	03 c0       	rjmp	.+6      	; 0xc3c <_Z7sendAllv+0x176>
 c36:	89 85       	ldd	r24, Y+9	; 0x09
 c38:	80 61       	ori	r24, 0x10	; 16
 c3a:	89 87       	std	Y+9, r24	; 0x09
 c3c:	8a 81       	ldd	r24, Y+2	; 0x02
 c3e:	59 81       	ldd	r21, Y+1	; 0x01
 c40:	85 0f       	add	r24, r21
 c42:	5b 81       	ldd	r21, Y+3	; 0x03
 c44:	85 0f       	add	r24, r21
 c46:	5e 81       	ldd	r21, Y+6	; 0x06
 c48:	85 0f       	add	r24, r21
 c4a:	59 85       	ldd	r21, Y+9	; 0x09
 c4c:	85 0f       	add	r24, r21
 c4e:	82 0f       	add	r24, r18
 c50:	89 0f       	add	r24, r25
 c52:	84 0f       	add	r24, r20
 c54:	83 0f       	add	r24, r19
 c56:	81 95       	neg	r24
 c58:	8a 87       	std	Y+10, r24	; 0x0a
 c5a:	8e ef       	ldi	r24, 0xFE	; 254
 c5c:	8b 87       	std	Y+11, r24	; 0x0b
 c5e:	8d ef       	ldi	r24, 0xFD	; 253
 c60:	8c 87       	std	Y+12, r24	; 0x0c
 c62:	6c e0       	ldi	r22, 0x0C	; 12
 c64:	70 e0       	ldi	r23, 0x00	; 0
 c66:	ce 01       	movw	r24, r28
 c68:	01 96       	adiw	r24, 0x01	; 1
 c6a:	0f da       	rcall	.-3042   	; 0x8a <_Z14UART_SendArrayPhj>
 c6c:	61 e0       	ldi	r22, 0x01	; 1
 c6e:	70 e0       	ldi	r23, 0x00	; 0
 c70:	80 e0       	ldi	r24, 0x00	; 0
 c72:	90 e0       	ldi	r25, 0x00	; 0
 c74:	bc da       	rcall	.-2696   	; 0x1ee <_Z5delaym>
 c76:	92 98       	cbi	0x12, 2	; 18
 c78:	90 98       	cbi	0x12, 0	; 18
 c7a:	2c 96       	adiw	r28, 0x0c	; 12
 c7c:	0f b6       	in	r0, 0x3f	; 63
 c7e:	f8 94       	cli
 c80:	de bf       	out	0x3e, r29	; 62
 c82:	0f be       	out	0x3f, r0	; 63
 c84:	cd bf       	out	0x3d, r28	; 61
 c86:	df 91       	pop	r29
 c88:	cf 91       	pop	r28
 c8a:	08 95       	ret

00000c8c <main>:
 c8c:	e8 db       	rcall	.-2096   	; 0x45e <_Z8initFuncv>
 c8e:	c0 e2       	ldi	r28, 0x20	; 32
 c90:	d1 e0       	ldi	r29, 0x01	; 1
 c92:	a8 95       	wdr
 c94:	80 91 94 00 	lds	r24, 0x0094
 c98:	90 91 95 00 	lds	r25, 0x0095
 c9c:	a0 91 96 00 	lds	r26, 0x0096
 ca0:	b0 91 97 00 	lds	r27, 0x0097
 ca4:	01 96       	adiw	r24, 0x01	; 1
 ca6:	a1 1d       	adc	r26, r1
 ca8:	b1 1d       	adc	r27, r1
 caa:	80 93 94 00 	sts	0x0094, r24
 cae:	90 93 95 00 	sts	0x0095, r25
 cb2:	a0 93 96 00 	sts	0x0096, r26
 cb6:	b0 93 97 00 	sts	0x0097, r27
 cba:	80 36       	cpi	r24, 0x60	; 96
 cbc:	9a 4e       	sbci	r25, 0xEA	; 234
 cbe:	a1 05       	cpc	r26, r1
 cc0:	b1 05       	cpc	r27, r1
 cc2:	b9 f4       	brne	.+46     	; 0xcf2 <main+0x66>
 cc4:	88 b3       	in	r24, 0x18	; 24
 cc6:	8c 27       	eor	r24, r28
 cc8:	88 bb       	out	0x18, r24	; 24
 cca:	80 91 70 00 	lds	r24, 0x0070
 cce:	88 23       	and	r24, r24
 cd0:	31 f0       	breq	.+12     	; 0xcde <main+0x52>
 cd2:	10 92 70 00 	sts	0x0070, r1
 cd6:	84 e6       	ldi	r24, 0x64	; 100
 cd8:	90 e0       	ldi	r25, 0x00	; 0
 cda:	cd da       	rcall	.-2662   	; 0x276 <_ZN5dht114readEv>
 cdc:	02 c0       	rjmp	.+4      	; 0xce2 <main+0x56>
 cde:	d0 93 70 00 	sts	0x0070, r29
 ce2:	10 92 94 00 	sts	0x0094, r1
 ce6:	10 92 95 00 	sts	0x0095, r1
 cea:	10 92 96 00 	sts	0x0096, r1
 cee:	10 92 97 00 	sts	0x0097, r1
 cf2:	dc dc       	rcall	.-1608   	; 0x6ac <_Z13seekButtPressv>
 cf4:	7c de       	rcall	.-776    	; 0x9ee <_Z6seekDDv>
 cf6:	9f dc       	rcall	.-1730   	; 0x636 <_Z9applySetsv>
 cf8:	cc cf       	rjmp	.-104    	; 0xc92 <main+0x6>

00000cfa <__vector_11>:
 cfa:	1f 92       	push	r1
 cfc:	0f 92       	push	r0
 cfe:	0f b6       	in	r0, 0x3f	; 63
 d00:	0f 92       	push	r0
 d02:	11 24       	eor	r1, r1
 d04:	2f 93       	push	r18
 d06:	3f 93       	push	r19
 d08:	4f 93       	push	r20
 d0a:	5f 93       	push	r21
 d0c:	6f 93       	push	r22
 d0e:	7f 93       	push	r23
 d10:	8f 93       	push	r24
 d12:	9f 93       	push	r25
 d14:	af 93       	push	r26
 d16:	bf 93       	push	r27
 d18:	ef 93       	push	r30
 d1a:	ff 93       	push	r31
 d1c:	4c c0       	rjmp	.+152    	; 0xdb6 <__vector_11+0xbc>
 d1e:	e0 91 98 00 	lds	r30, 0x0098
 d22:	f0 91 99 00 	lds	r31, 0x0099
 d26:	cf 01       	movw	r24, r30
 d28:	01 96       	adiw	r24, 0x01	; 1
 d2a:	90 93 99 00 	sts	0x0099, r25
 d2e:	80 93 98 00 	sts	0x0098, r24
 d32:	82 30       	cpi	r24, 0x02	; 2
 d34:	91 05       	cpc	r25, r1
 d36:	ac f1       	brlt	.+106    	; 0xda2 <__vector_11+0xa8>
 d38:	e6 56       	subi	r30, 0x66	; 102
 d3a:	ff 4f       	sbci	r31, 0xFF	; 255
 d3c:	df 01       	movw	r26, r30
 d3e:	11 97       	sbiw	r26, 0x01	; 1
 d40:	2c 91       	ld	r18, X
 d42:	2e 3f       	cpi	r18, 0xFE	; 254
 d44:	71 f5       	brne	.+92     	; 0xda2 <__vector_11+0xa8>
 d46:	20 81       	ld	r18, Z
 d48:	2d 3f       	cpi	r18, 0xFD	; 253
 d4a:	59 f5       	brne	.+86     	; 0xda2 <__vector_11+0xa8>
 d4c:	06 97       	sbiw	r24, 0x06	; 6
 d4e:	29 f5       	brne	.+74     	; 0xd9a <__vector_11+0xa0>
 d50:	80 91 9a 00 	lds	r24, 0x009A
 d54:	85 30       	cpi	r24, 0x05	; 5
 d56:	89 f4       	brne	.+34     	; 0xd7a <__vector_11+0x80>
 d58:	80 91 9b 00 	lds	r24, 0x009B
 d5c:	85 30       	cpi	r24, 0x05	; 5
 d5e:	69 f4       	brne	.+26     	; 0xd7a <__vector_11+0x80>
 d60:	80 91 9c 00 	lds	r24, 0x009C
 d64:	85 30       	cpi	r24, 0x05	; 5
 d66:	49 f4       	brne	.+18     	; 0xd7a <__vector_11+0x80>
 d68:	80 91 9d 00 	lds	r24, 0x009D
 d6c:	85 30       	cpi	r24, 0x05	; 5
 d6e:	29 f4       	brne	.+10     	; 0xd7a <__vector_11+0x80>
 d70:	aa de       	rcall	.-684    	; 0xac6 <_Z7sendAllv>
 d72:	10 92 99 00 	sts	0x0099, r1
 d76:	10 92 98 00 	sts	0x0098, r1
 d7a:	80 91 9a 00 	lds	r24, 0x009A
 d7e:	85 30       	cpi	r24, 0x05	; 5
 d80:	61 f4       	brne	.+24     	; 0xd9a <__vector_11+0xa0>
 d82:	80 91 9b 00 	lds	r24, 0x009B
 d86:	90 91 9c 00 	lds	r25, 0x009C
 d8a:	89 0f       	add	r24, r25
 d8c:	8b 5f       	subi	r24, 0xFB	; 251
 d8e:	81 95       	neg	r24
 d90:	90 91 9d 00 	lds	r25, 0x009D
 d94:	89 13       	cpse	r24, r25
 d96:	01 c0       	rjmp	.+2      	; 0xd9a <__vector_11+0xa0>
 d98:	d1 db       	rcall	.-2142   	; 0x53c <_Z8readSetsv>
 d9a:	10 92 99 00 	sts	0x0099, r1
 d9e:	10 92 98 00 	sts	0x0098, r1
 da2:	80 91 98 00 	lds	r24, 0x0098
 da6:	90 91 99 00 	lds	r25, 0x0099
 daa:	43 97       	sbiw	r24, 0x13	; 19
 dac:	24 f0       	brlt	.+8      	; 0xdb6 <__vector_11+0xbc>
 dae:	10 92 99 00 	sts	0x0099, r1
 db2:	10 92 98 00 	sts	0x0098, r1
 db6:	80 91 98 00 	lds	r24, 0x0098
 dba:	90 91 99 00 	lds	r25, 0x0099
 dbe:	86 56       	subi	r24, 0x66	; 102
 dc0:	9f 4f       	sbci	r25, 0xFF	; 255
 dc2:	5a d9       	rcall	.-3404   	; 0x78 <_Z13UART_ReadByteRh>
 dc4:	81 11       	cpse	r24, r1
 dc6:	ab cf       	rjmp	.-170    	; 0xd1e <__vector_11+0x24>
 dc8:	ff 91       	pop	r31
 dca:	ef 91       	pop	r30
 dcc:	bf 91       	pop	r27
 dce:	af 91       	pop	r26
 dd0:	9f 91       	pop	r25
 dd2:	8f 91       	pop	r24
 dd4:	7f 91       	pop	r23
 dd6:	6f 91       	pop	r22
 dd8:	5f 91       	pop	r21
 dda:	4f 91       	pop	r20
 ddc:	3f 91       	pop	r19
 dde:	2f 91       	pop	r18
 de0:	0f 90       	pop	r0
 de2:	0f be       	out	0x3f, r0	; 63
 de4:	0f 90       	pop	r0
 de6:	1f 90       	pop	r1
 de8:	18 95       	reti

00000dea <__eerd_byte_m8>:
 dea:	e1 99       	sbic	0x1c, 1	; 28
 dec:	fe cf       	rjmp	.-4      	; 0xdea <__eerd_byte_m8>
 dee:	9f bb       	out	0x1f, r25	; 31
 df0:	8e bb       	out	0x1e, r24	; 30
 df2:	e0 9a       	sbi	0x1c, 0	; 28
 df4:	99 27       	eor	r25, r25
 df6:	8d b3       	in	r24, 0x1d	; 29
 df8:	08 95       	ret

00000dfa <__eewr_byte_m8>:
 dfa:	26 2f       	mov	r18, r22

00000dfc <__eewr_r18_m8>:
 dfc:	e1 99       	sbic	0x1c, 1	; 28
 dfe:	fe cf       	rjmp	.-4      	; 0xdfc <__eewr_r18_m8>
 e00:	9f bb       	out	0x1f, r25	; 31
 e02:	8e bb       	out	0x1e, r24	; 30
 e04:	2d bb       	out	0x1d, r18	; 29
 e06:	0f b6       	in	r0, 0x3f	; 63
 e08:	f8 94       	cli
 e0a:	e2 9a       	sbi	0x1c, 2	; 28
 e0c:	e1 9a       	sbi	0x1c, 1	; 28
 e0e:	0f be       	out	0x3f, r0	; 63
 e10:	01 96       	adiw	r24, 0x01	; 1
 e12:	08 95       	ret

00000e14 <_exit>:
 e14:	f8 94       	cli

00000e16 <__stop_program>:
 e16:	ff cf       	rjmp	.-2      	; 0xe16 <__stop_program>
